target datalayout = "e-m:e-p270:32:32-p271:32:32-p272:64:64-i64:64-i128:128-f80:128-n8:16:32:64-S128"
target triple = "x86_64-pc-linux-gnu"

%struct.MOVMuxCencContext = type { ptr, ptr, i64, i64, i32, i32, i16, i64, ptr, i64, ptr, i32, i32, ptr, %struct.CodedBitstreamFragment }
%struct.CodedBitstreamFragment = type { ptr, i64, i64, ptr, i32, i32, ptr }

@.str.14 = private unnamed_addr constant [5 x i8] c"senc\00", align 1
@.str.15 = private unnamed_addr constant [5 x i8] c"saio\00", align 1
@.str.16 = private unnamed_addr constant [5 x i8] c"saiz\00", align 1

; Function Attrs: nounwind uwtable
define internal i64 @update_size(ptr noundef %0, i64 noundef %1) #0 {
  %3 = alloca ptr, align 8
  %4 = alloca i64, align 8
  %5 = alloca i64, align 8
  store ptr %0, ptr %3, align 8, !tbaa !8
  store i64 %1, ptr %4, align 8, !tbaa !35
  call void @llvm.lifetime.start.p0(i64 8, ptr %5) #7
  %6 = load ptr, ptr %3, align 8, !tbaa !8
  %7 = call i64 @avio_tell(ptr noundef %6)
  store i64 %7, ptr %5, align 8, !tbaa !35
  %8 = load ptr, ptr %3, align 8, !tbaa !8
  %9 = load i64, ptr %4, align 8, !tbaa !35
  %10 = call i64 @avio_seek(ptr noundef %8, i64 noundef %9, i32 noundef 0)
  %11 = load ptr, ptr %3, align 8, !tbaa !8
  %12 = load i64, ptr %5, align 8, !tbaa !35
  %13 = load i64, ptr %4, align 8, !tbaa !35
  %14 = sub nsw i64 %12, %13
  %15 = trunc i64 %14 to i32
  call void @avio_wb32(ptr noundef %11, i32 noundef %15)
  %16 = load ptr, ptr %3, align 8, !tbaa !8
  %17 = load i64, ptr %5, align 8, !tbaa !35
  %18 = call i64 @avio_seek(ptr noundef %16, i64 noundef %17, i32 noundef 0)
  %19 = load i64, ptr %5, align 8, !tbaa !35
  %20 = load i64, ptr %4, align 8, !tbaa !35
  %21 = sub nsw i64 %19, %20
  call void @llvm.lifetime.end.p0(i64 8, ptr %5) #7
  ret i64 %21
}

; Function Attrs: alwaysinline nounwind uwtable
define internal void @ffio_wfourcc(ptr noundef %0, ptr noundef %1) #4 {
  %3 = alloca ptr, align 8
  %4 = alloca ptr, align 8
  store ptr %0, ptr %3, align 8, !tbaa !8
  store ptr %1, ptr %4, align 8, !tbaa !10
  %5 = load ptr, ptr %3, align 8, !tbaa !8
  %6 = load ptr, ptr %4, align 8, !tbaa !10
  %7 = getelementptr inbounds i8, ptr %6, i64 0
  %8 = load i8, ptr %7, align 1, !tbaa !30
  %9 = zext i8 %8 to i32
  %10 = load ptr, ptr %4, align 8, !tbaa !10
  %11 = getelementptr inbounds i8, ptr %10, i64 1
  %12 = load i8, ptr %11, align 1, !tbaa !30
  %13 = zext i8 %12 to i32
  %14 = shl i32 %13, 8
  %15 = or i32 %9, %14
  %16 = load ptr, ptr %4, align 8, !tbaa !10
  %17 = getelementptr inbounds i8, ptr %16, i64 2
  %18 = load i8, ptr %17, align 1, !tbaa !30
  %19 = zext i8 %18 to i32
  %20 = shl i32 %19, 16
  %21 = or i32 %15, %20
  %22 = load ptr, ptr %4, align 8, !tbaa !10
  %23 = getelementptr inbounds i8, ptr %22, i64 3
  %24 = load i8, ptr %23, align 1, !tbaa !30
  %25 = zext i8 %24 to i32
  %26 = shl i32 %25, 24
  %27 = or i32 %21, %26
  call void @avio_wl32(ptr noundef %5, i32 noundef %27)
  ret void
}

; Function Attrs: alwaysinline nounwind uwtable
define internal i64 @avio_tell(ptr noundef %0) #4 {
  %2 = alloca ptr, align 8
  store ptr %0, ptr %2, align 8, !tbaa !8
  %3 = load ptr, ptr %2, align 8, !tbaa !8
  %4 = call i64 @avio_seek(ptr noundef %3, i64 noundef 0, i32 noundef 1)
  ret i64 %4
}

; Function Attrs: nounwind uwtable
define internal i32 @mov_cenc_write_saiz_tag(ptr noundef %0, ptr noundef %1) #0 {
  %3 = alloca ptr, align 8
  %4 = alloca ptr, align 8
  %5 = alloca i64, align 8
  store ptr %0, ptr %3, align 8, !tbaa !4
  store ptr %1, ptr %4, align 8, !tbaa !8
  call void @llvm.lifetime.start.p0(i64 8, ptr %5) #7
  %6 = load ptr, ptr %4, align 8, !tbaa !8
  %7 = call i64 @avio_tell(ptr noundef %6)
  store i64 %7, ptr %5, align 8, !tbaa !35
  %8 = load ptr, ptr %4, align 8, !tbaa !8
  call void @avio_wb32(ptr noundef %8, i32 noundef 0)
  %9 = load ptr, ptr %4, align 8, !tbaa !8
  call void @ffio_wfourcc(ptr noundef %9, ptr noundef @.str.16)
  %10 = load ptr, ptr %4, align 8, !tbaa !8
  call void @avio_wb32(ptr noundef %10, i32 noundef 0)
  %11 = load ptr, ptr %4, align 8, !tbaa !8
  %12 = load ptr, ptr %3, align 8, !tbaa !4
  %13 = getelementptr inbounds nuw %struct.MOVMuxCencContext, ptr %12, i32 0, i32 5
  %14 = load i32, ptr %13, align 4, !tbaa !24
  %15 = icmp ne i32 %14, 0
  %16 = select i1 %15, i32 0, i32 8
  call void @avio_w8(ptr noundef %11, i32 noundef %16)
  %17 = load ptr, ptr %4, align 8, !tbaa !8
  %18 = load ptr, ptr %3, align 8, !tbaa !4
  %19 = getelementptr inbounds nuw %struct.MOVMuxCencContext, ptr %18, i32 0, i32 4
  %20 = load i32, ptr %19, align 8, !tbaa !33
  call void @avio_wb32(ptr noundef %17, i32 noundef %20)
  %21 = load ptr, ptr %3, align 8, !tbaa !4
  %22 = getelementptr inbounds nuw %struct.MOVMuxCencContext, ptr %21, i32 0, i32 5
  %23 = load i32, ptr %22, align 4, !tbaa !24
  %24 = icmp ne i32 %23, 0
  br i1 %24, label %25, label %33

25:                                               ; preds = %2
  %26 = load ptr, ptr %4, align 8, !tbaa !8
  %27 = load ptr, ptr %3, align 8, !tbaa !4
  %28 = getelementptr inbounds nuw %struct.MOVMuxCencContext, ptr %27, i32 0, i32 8
  %29 = load ptr, ptr %28, align 8, !tbaa !36
  %30 = load ptr, ptr %3, align 8, !tbaa !4
  %31 = getelementptr inbounds nuw %struct.MOVMuxCencContext, ptr %30, i32 0, i32 4
  %32 = load i32, ptr %31, align 8, !tbaa !33
  call void @avio_write(ptr noundef %26, ptr noundef %29, i32 noundef %32)
  br label %33

33:                                               ; preds = %25, %2
  %34 = load ptr, ptr %4, align 8, !tbaa !8
  %35 = load i64, ptr %5, align 8, !tbaa !35
  %36 = call i64 @update_size(ptr noundef %34, i64 noundef %35)
  %37 = trunc i64 %36 to i32
  call void @llvm.lifetime.end.p0(i64 8, ptr %5) #7
  ret i32 %37
}

; Function Attrs: nounwind uwtable
define internal i32 @mov_cenc_write_saio_tag(ptr noundef %0, i64 noundef %1) #0 {
  %3 = alloca ptr, align 8
  %4 = alloca i64, align 8
  %5 = alloca i64, align 8
  %6 = alloca i8, align 1
  store ptr %0, ptr %3, align 8, !tbaa !8
  store i64 %1, ptr %4, align 8, !tbaa !35
  call void @llvm.lifetime.start.p0(i64 8, ptr %5) #7
  %7 = load ptr, ptr %3, align 8, !tbaa !8
  %8 = call i64 @avio_tell(ptr noundef %7)
  store i64 %8, ptr %5, align 8, !tbaa !35
  call void @llvm.lifetime.start.p0(i64 1, ptr %6) #7
  %9 = load ptr, ptr %3, align 8, !tbaa !8
  call void @avio_wb32(ptr noundef %9, i32 noundef 0)
  %10 = load ptr, ptr %3, align 8, !tbaa !8
  call void @ffio_wfourcc(ptr noundef %10, ptr noundef @.str.15)
  %11 = load i64, ptr %4, align 8, !tbaa !35
  %12 = icmp sgt i64 %11, 4294967295
  %13 = select i1 %12, i32 1, i32 0
  %14 = trunc i32 %13 to i8
  store i8 %14, ptr %6, align 1, !tbaa !30
  %15 = load ptr, ptr %3, align 8, !tbaa !8
  %16 = load i8, ptr %6, align 1, !tbaa !30
  %17 = zext i8 %16 to i32
  call void @avio_w8(ptr noundef %15, i32 noundef %17)
  %18 = load ptr, ptr %3, align 8, !tbaa !8
  call void @avio_wb24(ptr noundef %18, i32 noundef 0)
  %19 = load ptr, ptr %3, align 8, !tbaa !8
  call void @avio_wb32(ptr noundef %19, i32 noundef 1)
  %20 = load i8, ptr %6, align 1, !tbaa !30
  %21 = icmp ne i8 %20, 0
  br i1 %21, label %22, label %25

22:                                               ; preds = %2
  %23 = load ptr, ptr %3, align 8, !tbaa !8
  %24 = load i64, ptr %4, align 8, !tbaa !35
  call void @avio_wb64(ptr noundef %23, i64 noundef %24)
  br label %29

25:                                               ; preds = %2
  %26 = load ptr, ptr %3, align 8, !tbaa !8
  %27 = load i64, ptr %4, align 8, !tbaa !35
  %28 = trunc i64 %27 to i32
  call void @avio_wb32(ptr noundef %26, i32 noundef %28)
  br label %29

29:                                               ; preds = %25, %22
  %30 = load ptr, ptr %3, align 8, !tbaa !8
  %31 = load i64, ptr %5, align 8, !tbaa !35
  %32 = call i64 @update_size(ptr noundef %30, i64 noundef %31)
  %33 = trunc i64 %32 to i32
  call void @llvm.lifetime.end.p0(i64 1, ptr %6) #7
  call void @llvm.lifetime.end.p0(i64 8, ptr %5) #7
  ret i32 %33
}

; Function Attrs: nounwind uwtable
define internal i32 @mov_cenc_write_senc_tag(ptr noundef %0, ptr noundef %1, ptr noundef %2) #0 {
  %4 = alloca ptr, align 8
  %5 = alloca ptr, align 8
  %6 = alloca ptr, align 8
  %7 = alloca i64, align 8
  store ptr %0, ptr %4, align 8, !tbaa !4
  store ptr %1, ptr %5, align 8, !tbaa !8
  store ptr %2, ptr %6, align 8, !tbaa !98
  call void @llvm.lifetime.start.p0(i64 8, ptr %7) #7
  %8 = load ptr, ptr %5, align 8, !tbaa !8
  %9 = call i64 @avio_tell(ptr noundef %8)
  store i64 %9, ptr %7, align 8, !tbaa !35
  %10 = load ptr, ptr %5, align 8, !tbaa !8
  call void @avio_wb32(ptr noundef %10, i32 noundef 0)
  %11 = load ptr, ptr %5, align 8, !tbaa !8
  call void @ffio_wfourcc(ptr noundef %11, ptr noundef @.str.14)
  %12 = load ptr, ptr %5, align 8, !tbaa !8
  %13 = load ptr, ptr %4, align 8, !tbaa !4
  %14 = getelementptr inbounds nuw %struct.MOVMuxCencContext, ptr %13, i32 0, i32 5
  %15 = load i32, ptr %14, align 4, !tbaa !24
  %16 = icmp ne i32 %15, 0
  %17 = select i1 %16, i32 2, i32 0
  call void @avio_wb32(ptr noundef %12, i32 noundef %17)
  %18 = load ptr, ptr %5, align 8, !tbaa !8
  %19 = load ptr, ptr %4, align 8, !tbaa !4
  %20 = getelementptr inbounds nuw %struct.MOVMuxCencContext, ptr %19, i32 0, i32 4
  %21 = load i32, ptr %20, align 8, !tbaa !33
  call void @avio_wb32(ptr noundef %18, i32 noundef %21)
  %22 = load ptr, ptr %5, align 8, !tbaa !8
  %23 = call i64 @avio_tell(ptr noundef %22)
  %24 = load ptr, ptr %6, align 8, !tbaa !98
  store i64 %23, ptr %24, align 8, !tbaa !35
  %25 = load ptr, ptr %5, align 8, !tbaa !8
  %26 = load ptr, ptr %4, align 8, !tbaa !4
  %27 = getelementptr inbounds nuw %struct.MOVMuxCencContext, ptr %26, i32 0, i32 1
  %28 = load ptr, ptr %27, align 8, !tbaa !29
  %29 = load ptr, ptr %4, align 8, !tbaa !4
  %30 = getelementptr inbounds nuw %struct.MOVMuxCencContext, ptr %29, i32 0, i32 2
  %31 = load i64, ptr %30, align 8, !tbaa !25
  %32 = trunc i64 %31 to i32
  call void @avio_write(ptr noundef %25, ptr noundef %28, i32 noundef %32)
  %33 = load ptr, ptr %5, align 8, !tbaa !8
  %34 = load i64, ptr %7, align 8, !tbaa !35
  %35 = call i64 @update_size(ptr noundef %33, i64 noundef %34)
  %36 = trunc i64 %35 to i32
  call void @llvm.lifetime.end.p0(i64 8, ptr %7) #7
  ret i32 %36
}

; Function Attrs: nounwind uwtable
define void @ff_mov_cenc_write_stbl_atoms(ptr noundef %0, ptr noundef %1, i64 noundef %2) #0 {
  %4 = alloca ptr, align 8
  %5 = alloca ptr, align 8
  %6 = alloca i64, align 8
  %7 = alloca i64, align 8
  store ptr %0, ptr %4, align 8, !tbaa !4
  store ptr %1, ptr %5, align 8, !tbaa !8
  store i64 %2, ptr %6, align 8, !tbaa !35
  call void @llvm.lifetime.start.p0(i64 8, ptr %7) #7
  %8 = load ptr, ptr %4, align 8, !tbaa !4
  %9 = load ptr, ptr %5, align 8, !tbaa !8
  %10 = call i32 @mov_cenc_write_senc_tag(ptr noundef %8, ptr noundef %9, ptr noundef %7)
  %11 = load ptr, ptr %5, align 8, !tbaa !8
  %12 = load i64, ptr %7, align 8, !tbaa !35
  %13 = load i64, ptr %6, align 8, !tbaa !35
  %14 = sub nsw i64 %12, %13
  %15 = call i32 @mov_cenc_write_saio_tag(ptr noundef %11, i64 noundef %14)
  %16 = load ptr, ptr %4, align 8, !tbaa !4
  %17 = load ptr, ptr %5, align 8, !tbaa !8
  %18 = call i32 @mov_cenc_write_saiz_tag(ptr noundef %16, ptr noundef %17)
  call void @llvm.lifetime.end.p0(i64 8, ptr %7) #7
  ret void
}