; Function Attrs: nounwind uwtable
define void @ff_mov_cenc_write_stbl_atoms(ptr noundef readonly captures(none) %0, ptr noundef %1, i64 noundef %2) local_unnamed_addr #0 {
  %4 = tail call i64 @avio_seek(ptr noundef %1, i64 noundef 0, i32 noundef 1) #5
  tail call void @avio_wb32(ptr noundef %1, i32 noundef 0) #5
  tail call void @avio_wl32(ptr noundef %1, i32 noundef 1668179315) #5
  %5 = getelementptr inbounds nuw i8, ptr %0, i64 36
  %6 = load i32, ptr %5, align 4, !tbaa !4
  %.not.i = icmp eq i32 %6, 0
  %7 = select i1 %.not.i, i32 0, i32 2
  tail call void @avio_wb32(ptr noundef %1, i32 noundef %7) #5
  %8 = getelementptr inbounds nuw i8, ptr %0, i64 32
  %9 = load i32, ptr %8, align 8, !tbaa !27
  tail call void @avio_wb32(ptr noundef %1, i32 noundef %9) #5
  %10 = tail call i64 @avio_seek(ptr noundef %1, i64 noundef 0, i32 noundef 1) #5
  %11 = getelementptr inbounds nuw i8, ptr %0, i64 8
  %12 = load ptr, ptr %11, align 8, !tbaa !21
  %13 = getelementptr inbounds nuw i8, ptr %0, i64 16
  %14 = load i64, ptr %13, align 8, !tbaa !19
  %15 = trunc i64 %14 to i32
  tail call void @avio_write(ptr noundef %1, ptr noundef %12, i32 noundef %15) #5
  %16 = tail call i64 @avio_seek(ptr noundef %1, i64 noundef 0, i32 noundef 1) #5
  %17 = tail call i64 @avio_seek(ptr noundef %1, i64 noundef %4, i32 noundef 0) #5
  %18 = sub nsw i64 %16, %4
  %19 = trunc i64 %18 to i32
  tail call void @avio_wb32(ptr noundef %1, i32 noundef %19) #5
  %20 = tail call i64 @avio_seek(ptr noundef %1, i64 noundef %16, i32 noundef 0) #5
  %21 = sub nsw i64 %10, %2
  %22 = tail call i64 @avio_seek(ptr noundef %1, i64 noundef 0, i32 noundef 1) #5
  tail call void @avio_wb32(ptr noundef %1, i32 noundef 0) #5
  tail call void @avio_wl32(ptr noundef %1, i32 noundef 1869177203) #5
  %23 = icmp sgt i64 %21, 4294967295
  %24 = zext i1 %23 to i32
  tail call void @avio_w8(ptr noundef %1, i32 noundef %24) #5
  tail call void @avio_wb24(ptr noundef %1, i32 noundef 0) #5
  tail call void @avio_wb32(ptr noundef %1, i32 noundef 1) #5
  br i1 %23, label %25, label %26

25:                                               ; preds = %3
  tail call void @avio_wb64(ptr noundef %1, i64 noundef %21) #5
  br label %mov_cenc_write_saio_tag.exit

26:                                               ; preds = %3
  %27 = trunc i64 %21 to i32
  tail call void @avio_wb32(ptr noundef %1, i32 noundef %27) #5
  br label %mov_cenc_write_saio_tag.exit

mov_cenc_write_saio_tag.exit:                     ; preds = %25, %26
  %28 = tail call i64 @avio_seek(ptr noundef %1, i64 noundef 0, i32 noundef 1) #5
  %29 = tail call i64 @avio_seek(ptr noundef %1, i64 noundef %22, i32 noundef 0) #5
  %30 = sub nsw i64 %28, %22
  %31 = trunc i64 %30 to i32
  tail call void @avio_wb32(ptr noundef %1, i32 noundef %31) #5
  %32 = tail call i64 @avio_seek(ptr noundef %1, i64 noundef %28, i32 noundef 0) #5
  %33 = tail call i64 @avio_seek(ptr noundef %1, i64 noundef 0, i32 noundef 1) #5
  tail call void @avio_wb32(ptr noundef %1, i32 noundef 0) #5
  tail call void @avio_wl32(ptr noundef %1, i32 noundef 2053726579) #5
  tail call void @avio_wb32(ptr noundef %1, i32 noundef 0) #5
  %34 = load i32, ptr %5, align 4, !tbaa !4
  %.not.i5 = icmp eq i32 %34, 0
  %35 = select i1 %.not.i5, i32 8, i32 0
  tail call void @avio_w8(ptr noundef %1, i32 noundef %35) #5
  %36 = load i32, ptr %8, align 8, !tbaa !27
  tail call void @avio_wb32(ptr noundef %1, i32 noundef %36) #5
  %37 = load i32, ptr %5, align 4, !tbaa !4
  %.not13.i = icmp eq i32 %37, 0
  br i1 %.not13.i, label %mov_cenc_write_saiz_tag.exit, label %38

38:                                               ; preds = %mov_cenc_write_saio_tag.exit
  %39 = getelementptr inbounds nuw i8, ptr %0, i64 56
  %40 = load ptr, ptr %39, align 8, !tbaa !30
  %41 = load i32, ptr %8, align 8, !tbaa !27
  tail call void @avio_write(ptr noundef %1, ptr noundef %40, i32 noundef %41) #5
  br label %mov_cenc_write_saiz_tag.exit

mov_cenc_write_saiz_tag.exit:                     ; preds = %mov_cenc_write_saio_tag.exit, %38
  %42 = tail call i64 @avio_seek(ptr noundef %1, i64 noundef 0, i32 noundef 1) #5
  %43 = tail call i64 @avio_seek(ptr noundef %1, i64 noundef %33, i32 noundef 0) #5
  %44 = sub nsw i64 %42, %33
  %45 = trunc i64 %44 to i32
  tail call void @avio_wb32(ptr noundef %1, i32 noundef %45) #5
  %46 = tail call i64 @avio_seek(ptr noundef %1, i64 noundef %42, i32 noundef 0) #5
  ret void
}